(dp1
S'username'
p2
(dp3
S'length'
p4
I128
sS'unique'
p5
I00
sS'sortable'
p6
I5
sS'sql'
p7
S'CHAR(128)'
p8
sS'notnull'
p9
I00
sS'type'
p10
S'string'
p11
ssS'first_name'
p12
(dp13
g4
I128
sg5
I00
sg6
I2
sg7
S'CHAR(128)'
p14
sg9
I00
sg10
g11
ssS'last_name'
p15
(dp16
g4
I128
sg5
I00
sg6
I3
sg7
S'CHAR(128)'
p17
sg9
I00
sg10
g11
ssS'registration_id'
p18
(dp19
g4
I512
sg5
I00
sg6
I9
sg7
S'CHAR(512)'
p20
sg9
I00
sg10
g11
ssS'user_type'
p21
(dp22
g4
I512
sg5
I00
sg6
I10
sg7
S'CHAR(512)'
p23
sg9
I00
sg10
g11
ssS'reset_password_key'
p24
(dp25
g4
I512
sg5
I00
sg6
I8
sg7
S'CHAR(512)'
p26
<<<<<<< HEAD
sg9
I00
sg10
g11
ssS'email'
p27
(dp28
g4
I512
sg5
I00
sg6
I4
sg7
S'CHAR(512)'
p29
=======
>>>>>>> syq
sg9
I00
sg10
g11
ssS'id'
p27
(dp28
g4
I512
sg5
I00
sg6
I1
sg7
S'INTEGER PRIMARY KEY AUTOINCREMENT'
p29
sg9
I00
sg10
S'id'
p30
ssS'password'
<<<<<<< HEAD
p30
(dp31
=======
p31
(dp32
>>>>>>> syq
g4
I512
sg5
I00
sg6
I6
sg7
S'CHAR(512)'
<<<<<<< HEAD
p32
=======
p33
>>>>>>> syq
sg9
I00
sg10
S'password'
<<<<<<< HEAD
p33
ssS'registration_key'
p34
(dp35
=======
p34
ssS'registration_key'
p35
(dp36
>>>>>>> syq
g4
I512
sg5
I00
sg6
I7
sg7
S'CHAR(512)'
<<<<<<< HEAD
p36
=======
p37
>>>>>>> syq
sg9
I00
sg10
g11
<<<<<<< HEAD
ssS'id'
p37
(dp38
=======
ssS'email'
p38
(dp39
>>>>>>> syq
g4
I512
sg5
I00
sg6
I1
sg7
<<<<<<< HEAD
S'INTEGER PRIMARY KEY AUTOINCREMENT'
p39
=======
S'CHAR(512)'
p40
>>>>>>> syq
sg9
I00
sg10
S'id'
p40
ss.