(dp1
S'output'
p2
S"<type 'exceptions.AttributeError'> 'DAL' object has no attribute 'contact'"
p3
sS'layer'
p4
S'/home/andres/Documents/internships/applications/SPE/controllers/default.py'
p5
sS'code'
p6
S'# -*- coding: utf-8 -*-\n# this file is released under public domain and you can use without limitations\n\n#########################################################################\n## This is a sample controller\n## - index is the default action of any application\n## - user is required for authentication and authorization\n## - download is for downloading files uploaded in the db (does streaming)\n#########################################################################\n\ndef index():\n    """\n    example action using the internationalization operator T and flash\n    rendered by views/default/index.html or views/generic.html\n\n    if you need a simple wiki simply replace the two lines below with:\n    return auth.wiki()\n    """\n    response.flash = T("Bienvenido a SPE!")\n    return dict(message=T(\'Pagina modelo\'))\n\n\ndef user():\n    """\n    exposes:\n    http://..../[app]/default/user/login\n    http://..../[app]/default/user/logout\n    http://..../[app]/default/user/register\n    http://..../[app]/default/user/profile\n    http://..../[app]/default/user/retrieve_password\n    http://..../[app]/default/user/change_password\n    http://..../[app]/default/user/bulk_register\n    use @auth.requires_login()\n        @auth.requires_membership(\'group name\')\n        @auth.requires_permission(\'read\',\'table name\',record_id)\n    to decorate functions that need access control\n    also notice there is http://..../[app]/appadmin/manage/auth to allow administrator to manage users\n    """\n    return dict(form=auth())\n\n\n@cache.action()\ndef download():\n    """\n    allows downloading of uploaded files\n    http://..../[app]/default/download/[filename]\n    """\n    return response.download(request, dbSPE)\n\n\ndef call():\n    """\n    exposes services. for example:\n    http://..../[app]/default/call/jsonrpc\n    decorate with @services.jsonrpc the functions to expose\n    supports xml, json, xmlrpc, jsonrpc, amfrpc, rss, csv\n    """\n    return service()\n\ndef retirar_pasantia():\n    return response.render(\'default/retirar_pasantia.html\')\ndef retirar_pasantia():\n    formulario1=FORM(INPUT(_name=\'Nombre\'))\n    formulario2=FORM(INPUT(_name=\'Carnet\'))\n    formulario3=FORM(INPUT(_name=\'Fecha\'))\n    formulario4=FORM(TEXTAREA(_name=\'Motivo\'))\n    return dict(formulario1=formulario1,formulario2=formulario2,formulario3=formulario3,formulario4=formulario4)\n\ndef permiso_inscripcion_extratemporaneo():\n    return response.render(\'default/permiso_inscripcion_extratemporaneo.html\')\n\ndef permiso_inscripcion_extratemporaneo():\n    formulario1=FORM(INPUT(_name=\'Nombre\'))\n    formulario2=FORM(INPUT(_name=\'Carnet\'))\n    formulario3=FORM(INPUT(_name=\'Fecha\'))\n    formulario4=FORM(TEXTAREA(_name=\'Motivo\'))\n    return dict(formulario1=formulario1,formulario2=formulario2,formulario3=formulario3,formulario4=formulario4)\n\ndef permiso_evaluacion_extratemporaneo():\n    return response.render(\'default/permiso_evaluacion_extratemporaneo.html\')\n\ndef permiso_evaluacion_extratemporaneo():\n    formulario1=FORM(INPUT(_name=\'Nombre\'))\n    formulario2=FORM(INPUT(_name=\'Carnet\'))\n    formulario3=FORM(INPUT(_name=\'Fecha\'))\n    formulario4=FORM(TEXTAREA(_name=\'Motivo\'))\n    return dict(formulario1=formulario1,formulario2=formulario2,formulario3=formulario3,formulario4=formulario4)\n\ndef cc():\n    formulario1=FORM(INPUT(_name=\'Nombre\'))\n    formulario2=FORM(INPUT(_name=\'Carnet\'))\n    formulario3=FORM(INPUT(_name=\'Fecha\'))\n    formulario4=FORM(TEXTAREA(_name=\'Motivo\'))\n    return dict(formulario1=formulario1,formulario2=formulario2,formulario3=formulario3,formulario4=formulario4)\n\ndef justificar_retiro_profesor():\n    return response.render(\'default/justificar_retiro_profesor.html\')\n\ndef justificar_retiro_profesor():\n    formulario1=FORM(INPUT(_name=\'Nombre\'))\n    formulario2=FORM(INPUT(_name=\'Carnet\'))\n    formulario3=FORM(INPUT(_name=\'Fecha\'))\n    formulario4=FORM(TEXTAREA(_name=\'Motivo\'))\n    return dict(formulario1=formulario1,formulario2=formulario2,formulario3=formulario3,formulario4=formulario4)\n\ndef justificar_retiro_empresa():\n    return response.render(\'default/justificar_retiro_empresa.html\')\n\ndef justificar_retiro_empresa():\n    formulario1=FORM(INPUT(_name=\'Nombre\'))\n    formulario2=FORM(INPUT(_name=\'Carnet\'))\n    formulario3=FORM(INPUT(_name=\'Fecha\'))\n    formulario4=FORM(TEXTAREA(_name=\'Motivo\'))\n    return dict(formulario1=formulario1,formulario2=formulario2,formulario3=formulario3,formulario4=formulario4)\n\ndef permiso_inscripcion_extratemporaneo():\n    grid=SQLFORM.grid(db.contact, user_signature=False)\n    return locals()\n\nresponse._vars=response._caller(permiso_inscripcion_extratemporaneo)\n'
p7
sS'snapshot'
p8
(dp9
sS'traceback'
p10
S'Traceback (most recent call last):\n  File "/home/andres/Documents/internships/gluon/restricted.py", line 227, in restricted\n    exec ccode in environment\n  File "/home/andres/Documents/internships/applications/SPE/controllers/default.py", line 120, in <module>\n  File "/home/andres/Documents/internships/gluon/globals.py", line 412, in <lambda>\n    self._caller = lambda f: f()\n  File "/home/andres/Documents/internships/applications/SPE/controllers/default.py", line 117, in permiso_inscripcion_extratemporaneo\n    grid=SQLFORM.grid(db.contact, user_signature=False)\n  File "/home/andres/Documents/internships/gluon/packages/dal/pydal/base.py", line 921, in __getattr__\n    return BasicStorage.__getattribute__(self, key)\nAttributeError: \'DAL\' object has no attribute \'contact\'\n'
p11
s.